; Function Attrs: mustprogress nounwind uwtable
define dso_local void @_ZN4llvm9KnownBits8avgCeilSERKS0_S2_(ptr dead_on_unwind noalias nocapture writable writeonly sret(%"struct.llvm::KnownBits") align 8 %0, ptr noundef nonnull align 8 dereferenceable(32) %1, ptr noundef nonnull align 8 dereferenceable(32) %2) local_unnamed_addr #0 align 2 {
  %4 = alloca %"struct.llvm::KnownBits", align 8
  %5 = alloca %"struct.llvm::KnownBits", align 8
  %6 = getelementptr inbounds nuw i8, ptr %4, i64 8
  %7 = getelementptr inbounds nuw i8, ptr %1, i64 8
  %8 = load i32, ptr %7, align 8
  store i32 %8, ptr %6, align 8
  %9 = icmp ult i32 %8, 65
  br i1 %9, label %10, label %12

10:                                               ; preds = %3
  %11 = load i64, ptr %1, align 8
  store i64 %11, ptr %4, align 8
  br label %_ZN4llvm5APIntC2ERKS0_.exit.i

12:                                               ; preds = %3
  call void @_ZN4llvm5APInt12initSlowCaseERKS0_(ptr noundef nonnull align 8 dereferenceable(12) %4, ptr noundef nonnull align 8 dereferenceable(12) %1) #11
  br label %_ZN4llvm5APIntC2ERKS0_.exit.i

_ZN4llvm5APIntC2ERKS0_.exit.i:                    ; preds = %12, %10
  %13 = getelementptr inbounds nuw i8, ptr %4, i64 16
  %14 = getelementptr inbounds nuw i8, ptr %1, i64 16
  %15 = getelementptr inbounds i8, ptr %4, i64 24
  %16 = getelementptr inbounds i8, ptr %1, i64 24
  %17 = load i32, ptr %16, align 8
  store i32 %17, ptr %15, align 8
  %18 = icmp ult i32 %17, 65
  br i1 %18, label %19, label %21

19:                                               ; preds = %_ZN4llvm5APIntC2ERKS0_.exit.i
  %20 = load i64, ptr %14, align 8
  store i64 %20, ptr %13, align 8
  br label %_ZN4llvm9KnownBitsC2ERKS0_.exit

21:                                               ; preds = %_ZN4llvm5APIntC2ERKS0_.exit.i
  call void @_ZN4llvm5APInt12initSlowCaseERKS0_(ptr noundef nonnull align 8 dereferenceable(12) %13, ptr noundef nonnull align 8 dereferenceable(12) %14) #11
  br label %_ZN4llvm9KnownBitsC2ERKS0_.exit

_ZN4llvm9KnownBitsC2ERKS0_.exit:                  ; preds = %19, %21
  %22 = getelementptr inbounds nuw i8, ptr %5, i64 8
  %23 = getelementptr inbounds nuw i8, ptr %2, i64 8
  %24 = load i32, ptr %23, align 8
  store i32 %24, ptr %22, align 8
  %25 = icmp ult i32 %24, 65
  br i1 %25, label %26, label %28

26:                                               ; preds = %_ZN4llvm9KnownBitsC2ERKS0_.exit
  %27 = load i64, ptr %2, align 8
  store i64 %27, ptr %5, align 8
  br label %_ZN4llvm5APIntC2ERKS0_.exit.i2

28:                                               ; preds = %_ZN4llvm9KnownBitsC2ERKS0_.exit
  call void @_ZN4llvm5APInt12initSlowCaseERKS0_(ptr noundef nonnull align 8 dereferenceable(12) %5, ptr noundef nonnull align 8 dereferenceable(12) %2) #11
  br label %_ZN4llvm5APIntC2ERKS0_.exit.i2

_ZN4llvm5APIntC2ERKS0_.exit.i2:                   ; preds = %28, %26
  %29 = getelementptr inbounds nuw i8, ptr %5, i64 16
  %30 = getelementptr inbounds nuw i8, ptr %2, i64 16
  %31 = getelementptr inbounds i8, ptr %5, i64 24
  %32 = getelementptr inbounds i8, ptr %2, i64 24
  %33 = load i32, ptr %32, align 8
  store i32 %33, ptr %31, align 8
  %34 = icmp ult i32 %33, 65
  br i1 %34, label %35, label %37

35:                                               ; preds = %_ZN4llvm5APIntC2ERKS0_.exit.i2
  %36 = load i64, ptr %30, align 8
  store i64 %36, ptr %29, align 8
  br label %_ZN4llvm9KnownBitsC2ERKS0_.exit3

37:                                               ; preds = %_ZN4llvm5APIntC2ERKS0_.exit.i2
  call void @_ZN4llvm5APInt12initSlowCaseERKS0_(ptr noundef nonnull align 8 dereferenceable(12) %29, ptr noundef nonnull align 8 dereferenceable(12) %30) #11
  br label %_ZN4llvm9KnownBitsC2ERKS0_.exit3

_ZN4llvm9KnownBitsC2ERKS0_.exit3:                 ; preds = %35, %37
  call fastcc void @_ZL10avgComputeN4llvm9KnownBitsES0_bb(ptr dead_on_unwind noalias writable align 8 %0, ptr noundef nonnull %4, ptr noundef nonnull %5, i1 noundef zeroext true, i1 noundef zeroext true)
  %38 = load i32, ptr %31, align 8
  %39 = icmp ugt i32 %38, 64
  br i1 %39, label %40, label %_ZN4llvm5APIntD2Ev.exit.i

40:                                               ; preds = %_ZN4llvm9KnownBitsC2ERKS0_.exit3
  %41 = load ptr, ptr %29, align 8
  %42 = icmp eq ptr %41, null
  br i1 %42, label %_ZN4llvm5APIntD2Ev.exit.i, label %43

43:                                               ; preds = %40
  call void @_ZdaPv(ptr noundef nonnull %41) #12
  br label %_ZN4llvm5APIntD2Ev.exit.i

_ZN4llvm5APIntD2Ev.exit.i:                        ; preds = %43, %40, %_ZN4llvm9KnownBitsC2ERKS0_.exit3
  %44 = load i32, ptr %22, align 8
  %45 = icmp ugt i32 %44, 64
  br i1 %45, label %46, label %_ZN4llvm9KnownBitsD2Ev.exit

46:                                               ; preds = %_ZN4llvm5APIntD2Ev.exit.i
  %47 = load ptr, ptr %5, align 8
  %48 = icmp eq ptr %47, null
  br i1 %48, label %_ZN4llvm9KnownBitsD2Ev.exit, label %49

49:                                               ; preds = %46
  call void @_ZdaPv(ptr noundef nonnull %47) #12
  br label %_ZN4llvm9KnownBitsD2Ev.exit

_ZN4llvm9KnownBitsD2Ev.exit:                      ; preds = %_ZN4llvm5APIntD2Ev.exit.i, %46, %49
  %50 = load i32, ptr %15, align 8
  %51 = icmp ugt i32 %50, 64
  br i1 %51, label %52, label %_ZN4llvm5APIntD2Ev.exit.i4

52:                                               ; preds = %_ZN4llvm9KnownBitsD2Ev.exit
  %53 = load ptr, ptr %13, align 8
  %54 = icmp eq ptr %53, null
  br i1 %54, label %_ZN4llvm5APIntD2Ev.exit.i4, label %55

55:                                               ; preds = %52
  call void @_ZdaPv(ptr noundef nonnull %53) #12
  br label %_ZN4llvm5APIntD2Ev.exit.i4

_ZN4llvm5APIntD2Ev.exit.i4:                       ; preds = %55, %52, %_ZN4llvm9KnownBitsD2Ev.exit
  %56 = load i32, ptr %6, align 8
  %57 = icmp ugt i32 %56, 64
  br i1 %57, label %58, label %_ZN4llvm9KnownBitsD2Ev.exit5

58:                                               ; preds = %_ZN4llvm5APIntD2Ev.exit.i4
  %59 = load ptr, ptr %4, align 8
  %60 = icmp eq ptr %59, null
  br i1 %60, label %_ZN4llvm9KnownBitsD2Ev.exit5, label %61

61:                                               ; preds = %58
  call void @_ZdaPv(ptr noundef nonnull %59) #12
  br label %_ZN4llvm9KnownBitsD2Ev.exit5

_ZN4llvm9KnownBitsD2Ev.exit5:                     ; preds = %_ZN4llvm5APIntD2Ev.exit.i4, %58, %61
  ret void
}